target datalayout = "e-m:e-p270:32:32-p271:32:32-p272:64:64-i64:64-i128:128-f80:128-n8:16:32:64-S128"
target triple = "x86_64-pc-linux-gnu"

%"class.__gnu_cxx::__normal_iterator" = type { ptr }
%struct.gmx_mtop_t = type { ptr, %struct.gmx_ffparams_t, %"class.std::vector.10", %"class.std::vector.15", i8, %"class.std::unique_ptr", i32, %struct.SimulationGroups, %struct.t_symtab, i8, %"class.std::vector", %"class.std::vector.33", i32, i32 }
%struct.gmx_ffparams_t = type { i32, %"class.std::vector", %"class.std::vector.0", double, float, %struct.gmx_cmap_t }
%"class.std::vector.0" = type { %"struct.std::_Vector_base.1" }
%"struct.std::_Vector_base.1" = type { %"struct.std::_Vector_base<t_iparams, std::allocator<t_iparams>>::_Vector_impl" }
%"struct.std::_Vector_base<t_iparams, std::allocator<t_iparams>>::_Vector_impl" = type { %"struct.std::_Vector_base<t_iparams, std::allocator<t_iparams>>::_Vector_impl_data" }
%"struct.std::_Vector_base<t_iparams, std::allocator<t_iparams>>::_Vector_impl_data" = type { ptr, ptr, ptr }
%struct.gmx_cmap_t = type { i32, %"class.std::vector.5" }
%"class.std::vector.5" = type { %"struct.std::_Vector_base.6" }
%"struct.std::_Vector_base.6" = type { %"struct.std::_Vector_base<gmx_cmapdata_t, std::allocator<gmx_cmapdata_t>>::_Vector_impl" }
%"struct.std::_Vector_base<gmx_cmapdata_t, std::allocator<gmx_cmapdata_t>>::_Vector_impl" = type { %"struct.std::_Vector_base<gmx_cmapdata_t, std::allocator<gmx_cmapdata_t>>::_Vector_impl_data" }
%"struct.std::_Vector_base<gmx_cmapdata_t, std::allocator<gmx_cmapdata_t>>::_Vector_impl_data" = type { ptr, ptr, ptr }
%"class.std::vector.10" = type { %"struct.std::_Vector_base.11" }
%"struct.std::_Vector_base.11" = type { %"struct.std::_Vector_base<gmx_moltype_t, std::allocator<gmx_moltype_t>>::_Vector_impl" }
%"struct.std::_Vector_base<gmx_moltype_t, std::allocator<gmx_moltype_t>>::_Vector_impl" = type { %"struct.std::_Vector_base<gmx_moltype_t, std::allocator<gmx_moltype_t>>::_Vector_impl_data" }
%"struct.std::_Vector_base<gmx_moltype_t, std::allocator<gmx_moltype_t>>::_Vector_impl_data" = type { ptr, ptr, ptr }
%"class.std::vector.15" = type { %"struct.std::_Vector_base.16" }
%"struct.std::_Vector_base.16" = type { %"struct.std::_Vector_base<gmx_molblock_t, std::allocator<gmx_molblock_t>>::_Vector_impl" }
%"struct.std::_Vector_base<gmx_molblock_t, std::allocator<gmx_molblock_t>>::_Vector_impl" = type { %"struct.std::_Vector_base<gmx_molblock_t, std::allocator<gmx_molblock_t>>::_Vector_impl_data" }
%"struct.std::_Vector_base<gmx_molblock_t, std::allocator<gmx_molblock_t>>::_Vector_impl_data" = type { ptr, ptr, ptr }
%"class.std::unique_ptr" = type { %"struct.std::__uniq_ptr_data" }
%"struct.std::__uniq_ptr_data" = type { %"class.std::__uniq_ptr_impl" }
%"class.std::__uniq_ptr_impl" = type { %"class.std::tuple" }
%"class.std::tuple" = type { %"struct.std::_Tuple_impl" }
%"struct.std::_Tuple_impl" = type { %"struct.std::_Head_base.21" }
%"struct.std::_Head_base.21" = type { ptr }
%struct.SimulationGroups = type { %"struct.gmx::EnumerationArray", %"class.std::vector.22", %"struct.gmx::EnumerationArray.27" }
%"struct.gmx::EnumerationArray" = type { [10 x %"class.std::vector"] }
%"class.std::vector.22" = type { %"struct.std::_Vector_base.23" }
%"struct.std::_Vector_base.23" = type { %"struct.std::_Vector_base<char **, std::allocator<char **>>::_Vector_impl" }
%"struct.std::_Vector_base<char **, std::allocator<char **>>::_Vector_impl" = type { %"struct.std::_Vector_base<char **, std::allocator<char **>>::_Vector_impl_data" }
%"struct.std::_Vector_base<char **, std::allocator<char **>>::_Vector_impl_data" = type { ptr, ptr, ptr }
%"struct.gmx::EnumerationArray.27" = type { [10 x %"class.std::vector.28"] }
%"class.std::vector.28" = type { %"struct.std::_Vector_base.29" }
%"struct.std::_Vector_base.29" = type { %"struct.std::_Vector_base<unsigned char, std::allocator<unsigned char>>::_Vector_impl" }
%"struct.std::_Vector_base<unsigned char, std::allocator<unsigned char>>::_Vector_impl" = type { %"struct.std::_Vector_base<unsigned char, std::allocator<unsigned char>>::_Vector_impl_data" }
%"struct.std::_Vector_base<unsigned char, std::allocator<unsigned char>>::_Vector_impl_data" = type { ptr, ptr, ptr }
%struct.t_symtab = type { i32, ptr }
%"class.std::vector" = type { %"struct.std::_Vector_base" }
%"struct.std::_Vector_base" = type { %"struct.std::_Vector_base<int, std::allocator<int>>::_Vector_impl" }
%"struct.std::_Vector_base<int, std::allocator<int>>::_Vector_impl" = type { %"struct.std::_Vector_base<int, std::allocator<int>>::_Vector_impl_data" }
%"struct.std::_Vector_base<int, std::allocator<int>>::_Vector_impl_data" = type { ptr, ptr, ptr }
%"class.std::vector.33" = type { %"struct.std::_Vector_base.34" }
%"struct.std::_Vector_base.34" = type { %"struct.std::_Vector_base<MoleculeBlockIndices, std::allocator<MoleculeBlockIndices>>::_Vector_impl" }
%"struct.std::_Vector_base<MoleculeBlockIndices, std::allocator<MoleculeBlockIndices>>::_Vector_impl" = type { %"struct.std::_Vector_base<MoleculeBlockIndices, std::allocator<MoleculeBlockIndices>>::_Vector_impl_data" }
%"struct.std::_Vector_base<MoleculeBlockIndices, std::allocator<MoleculeBlockIndices>>::_Vector_impl_data" = type { ptr, ptr, ptr }
%struct.gmx_molblock_t = type { i32, i32, %"class.std::vector.38", %"class.std::vector.38" }
%"class.std::vector.38" = type { %"struct.std::_Vector_base.39" }
%"struct.std::_Vector_base.39" = type { %"struct.std::_Vector_base<gmx::BasicVector<float>, std::allocator<gmx::BasicVector<float>>>::_Vector_impl" }
%"struct.std::_Vector_base<gmx::BasicVector<float>, std::allocator<gmx::BasicVector<float>>>::_Vector_impl" = type { %"struct.std::_Vector_base<gmx::BasicVector<float>, std::allocator<gmx::BasicVector<float>>>::_Vector_impl_data" }
%"struct.std::_Vector_base<gmx::BasicVector<float>, std::allocator<gmx::BasicVector<float>>>::_Vector_impl_data" = type { ptr, ptr, ptr }
%struct.gmx_moltype_t = type { ptr, %struct.t_atoms, %"struct.std::array", %"class.gmx::ListOfLists" }
%struct.t_atoms = type { i32, ptr, ptr, ptr, ptr, i32, ptr, ptr, i8, i8, i8, i8, i8 }
%"struct.std::array" = type { [95 x %struct.InteractionList] }
%struct.InteractionList = type { %"class.std::vector" }
%"class.gmx::ListOfLists" = type { %"class.std::vector", %"class.std::vector" }
%struct.t_atom = type { float, float, float, float, i16, i16, i32, i32, i32, [4 x i8] }
%"struct.gmx::EnumerationArray.43" = type { [5 x i32] }

; Function Attrs: mustprogress nounwind uwtable
define linkonce_odr noundef nonnull align 8 dereferenceable(8) ptr @_ZNK9__gnu_cxx17__normal_iteratorIPK14gmx_molblock_tSt6vectorIS1_SaIS1_EEE4baseEv(ptr noundef nonnull align 8 dereferenceable(8) %0) #0 comdat align 2 {
  %2 = alloca ptr, align 8
  store ptr %0, ptr %2, align 8, !tbaa !96
  %3 = load ptr, ptr %2, align 8
  %4 = getelementptr inbounds nuw %"class.__gnu_cxx::__normal_iterator", ptr %3, i32 0, i32 0
  ret ptr %4
}

; Function Attrs: mustprogress nounwind uwtable
define linkonce_odr void @_ZN9__gnu_cxx17__normal_iteratorIPK14gmx_molblock_tSt6vectorIS1_SaIS1_EEEC2ERKS3_(ptr noundef nonnull align 8 dereferenceable(8) %0, ptr noundef nonnull align 8 dereferenceable(8) %1) unnamed_addr #0 comdat align 2 {
  %3 = alloca ptr, align 8
  %4 = alloca ptr, align 8
  store ptr %0, ptr %3, align 8, !tbaa !96
  store ptr %1, ptr %4, align 8, !tbaa !105
  %5 = load ptr, ptr %3, align 8
  %6 = getelementptr inbounds nuw %"class.__gnu_cxx::__normal_iterator", ptr %5, i32 0, i32 0
  %7 = load ptr, ptr %4, align 8, !tbaa !105
  %8 = load ptr, ptr %7, align 8, !tbaa !73
  store ptr %8, ptr %6, align 8, !tbaa !98
  ret void
}

; Function Attrs: mustprogress nounwind uwtable
define linkonce_odr noundef nonnull align 8 dereferenceable(8) ptr @_ZN9__gnu_cxx17__normal_iteratorIPK14gmx_molblock_tSt6vectorIS1_SaIS1_EEEppEv(ptr noundef nonnull align 8 dereferenceable(8) %0) #0 comdat align 2 {
  %2 = alloca ptr, align 8
  store ptr %0, ptr %2, align 8, !tbaa !96
  %3 = load ptr, ptr %2, align 8
  %4 = getelementptr inbounds nuw %"class.__gnu_cxx::__normal_iterator", ptr %3, i32 0, i32 0
  %5 = load ptr, ptr %4, align 8, !tbaa !98
  %6 = getelementptr inbounds nuw %struct.gmx_molblock_t, ptr %5, i32 1
  store ptr %6, ptr %4, align 8, !tbaa !98
  ret ptr %3
}

; Function Attrs: mustprogress nounwind uwtable
define linkonce_odr noundef nonnull align 4 dereferenceable(4) ptr @_ZN3gmx16EnumerationArrayI12ParticleTypeiLS1_5EEixES1_(ptr noundef nonnull align 4 dereferenceable(20) %0, i32 noundef %1) #0 comdat align 2 {
  %3 = alloca ptr, align 8
  %4 = alloca i32, align 4
  store ptr %0, ptr %3, align 8, !tbaa !133
  store i32 %1, ptr %4, align 4, !tbaa !135
  %5 = load ptr, ptr %3, align 8
  %6 = getelementptr inbounds nuw %"struct.gmx::EnumerationArray.43", ptr %5, i32 0, i32 0
  %7 = load i32, ptr %4, align 4, !tbaa !135
  %8 = sext i32 %7 to i64
  %9 = getelementptr inbounds nuw [5 x i32], ptr %6, i64 0, i64 %8
  ret ptr %9
}

; Function Attrs: mustprogress nounwind uwtable
define linkonce_odr noundef nonnull align 8 dereferenceable(2408) ptr @_ZNKSt6vectorI13gmx_moltype_tSaIS0_EEixEm(ptr noundef nonnull align 8 dereferenceable(24) %0, i64 noundef %1) #0 comdat align 2 {
  %3 = alloca ptr, align 8
  %4 = alloca i64, align 8
  store ptr %0, ptr %3, align 8, !tbaa !100
  store i64 %1, ptr %4, align 8, !tbaa !102
  %5 = load ptr, ptr %3, align 8
  %6 = getelementptr inbounds nuw %"struct.std::_Vector_base.11", ptr %5, i32 0, i32 0
  %7 = getelementptr inbounds nuw %"struct.std::_Vector_base<gmx_moltype_t, std::allocator<gmx_moltype_t>>::_Vector_impl_data", ptr %6, i32 0, i32 0
  %8 = load ptr, ptr %7, align 8, !tbaa !104
  %9 = load i64, ptr %4, align 8, !tbaa !102
  %10 = getelementptr inbounds nuw %struct.gmx_moltype_t, ptr %8, i64 %9
  ret ptr %10
}

; Function Attrs: mustprogress nounwind uwtable
define linkonce_odr noundef nonnull align 8 dereferenceable(56) ptr @_ZNK9__gnu_cxx17__normal_iteratorIPK14gmx_molblock_tSt6vectorIS1_SaIS1_EEEdeEv(ptr noundef nonnull align 8 dereferenceable(8) %0) #0 comdat align 2 {
  %2 = alloca ptr, align 8
  store ptr %0, ptr %2, align 8, !tbaa !96
  %3 = load ptr, ptr %2, align 8
  %4 = getelementptr inbounds nuw %"class.__gnu_cxx::__normal_iterator", ptr %3, i32 0, i32 0
  %5 = load ptr, ptr %4, align 8, !tbaa !98
  ret ptr %5
}

; Function Attrs: inlinehint mustprogress nounwind uwtable
define linkonce_odr noundef zeroext i1 @_ZN9__gnu_cxxneIPK14gmx_molblock_tSt6vectorIS1_SaIS1_EEEEbRKNS_17__normal_iteratorIT_T0_EESC_(ptr noundef nonnull align 8 dereferenceable(8) %0, ptr noundef nonnull align 8 dereferenceable(8) %1) #2 comdat {
  %3 = alloca ptr, align 8
  %4 = alloca ptr, align 8
  store ptr %0, ptr %3, align 8, !tbaa !96
  store ptr %1, ptr %4, align 8, !tbaa !96
  %5 = load ptr, ptr %3, align 8, !tbaa !96
  %6 = call noundef nonnull align 8 dereferenceable(8) ptr @_ZNK9__gnu_cxx17__normal_iteratorIPK14gmx_molblock_tSt6vectorIS1_SaIS1_EEE4baseEv(ptr noundef nonnull align 8 dereferenceable(8) %5) #16
  %7 = load ptr, ptr %6, align 8, !tbaa !73
  %8 = load ptr, ptr %4, align 8, !tbaa !96
  %9 = call noundef nonnull align 8 dereferenceable(8) ptr @_ZNK9__gnu_cxx17__normal_iteratorIPK14gmx_molblock_tSt6vectorIS1_SaIS1_EEE4baseEv(ptr noundef nonnull align 8 dereferenceable(8) %8) #16
  %10 = load ptr, ptr %9, align 8, !tbaa !73
  %11 = icmp ne ptr %7, %10
  ret i1 %11
}

; Function Attrs: mustprogress nounwind uwtable
define linkonce_odr ptr @_ZNKSt6vectorI14gmx_molblock_tSaIS0_EE3endEv(ptr noundef nonnull align 8 dereferenceable(24) %0) #0 comdat align 2 {
  %2 = alloca %"class.__gnu_cxx::__normal_iterator", align 8
  %3 = alloca ptr, align 8
  store ptr %0, ptr %3, align 8, !tbaa !71
  %4 = load ptr, ptr %3, align 8
  %5 = getelementptr inbounds nuw %"struct.std::_Vector_base.16", ptr %4, i32 0, i32 0
  %6 = getelementptr inbounds nuw %"struct.std::_Vector_base<gmx_molblock_t, std::allocator<gmx_molblock_t>>::_Vector_impl_data", ptr %5, i32 0, i32 1
  call void @_ZN9__gnu_cxx17__normal_iteratorIPK14gmx_molblock_tSt6vectorIS1_SaIS1_EEEC2ERKS3_(ptr noundef nonnull align 8 dereferenceable(8) %2, ptr noundef nonnull align 8 dereferenceable(8) %6) #16
  %7 = getelementptr inbounds nuw %"class.__gnu_cxx::__normal_iterator", ptr %2, i32 0, i32 0
  %8 = load ptr, ptr %7, align 8
  ret ptr %8
}

; Function Attrs: mustprogress nounwind uwtable
define linkonce_odr ptr @_ZNKSt6vectorI14gmx_molblock_tSaIS0_EE5beginEv(ptr noundef nonnull align 8 dereferenceable(24) %0) #0 comdat align 2 {
  %2 = alloca %"class.__gnu_cxx::__normal_iterator", align 8
  %3 = alloca ptr, align 8
  store ptr %0, ptr %3, align 8, !tbaa !71
  %4 = load ptr, ptr %3, align 8
  %5 = getelementptr inbounds nuw %"struct.std::_Vector_base.16", ptr %4, i32 0, i32 0
  %6 = getelementptr inbounds nuw %"struct.std::_Vector_base<gmx_molblock_t, std::allocator<gmx_molblock_t>>::_Vector_impl_data", ptr %5, i32 0, i32 0
  call void @_ZN9__gnu_cxx17__normal_iteratorIPK14gmx_molblock_tSt6vectorIS1_SaIS1_EEEC2ERKS3_(ptr noundef nonnull align 8 dereferenceable(8) %2, ptr noundef nonnull align 8 dereferenceable(8) %6) #16
  %7 = getelementptr inbounds nuw %"class.__gnu_cxx::__normal_iterator", ptr %2, i32 0, i32 0
  %8 = load ptr, ptr %7, align 8
  ret ptr %8
}

; Function Attrs: mustprogress uwtable
define void @_Z27gmx_mtop_particletype_countRK10gmx_mtop_t(ptr dead_on_unwind noalias writable sret(%"struct.gmx::EnumerationArray.43") align 4 %0, ptr noundef nonnull align 8 dereferenceable(768) %1) #3 {
  %3 = alloca ptr, align 8
  %4 = alloca ptr, align 8
  %5 = alloca %"class.__gnu_cxx::__normal_iterator", align 8
  %6 = alloca %"class.__gnu_cxx::__normal_iterator", align 8
  %7 = alloca i32, align 4
  %8 = alloca ptr, align 8
  %9 = alloca ptr, align 8
  %10 = alloca i32, align 4
  store ptr %1, ptr %3, align 8, !tbaa !4
  call void @llvm.memset.p0.i64(ptr align 4 %0, i8 0, i64 20, i1 false)
  call void @llvm.lifetime.start.p0(i64 8, ptr %4) #16
  %11 = load ptr, ptr %3, align 8, !tbaa !4
  %12 = getelementptr inbounds nuw %struct.gmx_mtop_t, ptr %11, i32 0, i32 3
  store ptr %12, ptr %4, align 8, !tbaa !71
  call void @llvm.lifetime.start.p0(i64 8, ptr %5) #16
  %13 = load ptr, ptr %4, align 8, !tbaa !71
  %14 = call ptr @_ZNKSt6vectorI14gmx_molblock_tSaIS0_EE5beginEv(ptr noundef nonnull align 8 dereferenceable(24) %13) #16
  %15 = getelementptr inbounds nuw %"class.__gnu_cxx::__normal_iterator", ptr %5, i32 0, i32 0
  store ptr %14, ptr %15, align 8
  call void @llvm.lifetime.start.p0(i64 8, ptr %6) #16
  %16 = load ptr, ptr %4, align 8, !tbaa !71
  %17 = call ptr @_ZNKSt6vectorI14gmx_molblock_tSaIS0_EE3endEv(ptr noundef nonnull align 8 dereferenceable(24) %16) #16
  %18 = getelementptr inbounds nuw %"class.__gnu_cxx::__normal_iterator", ptr %6, i32 0, i32 0
  store ptr %17, ptr %18, align 8
  br label %19

19:                                               ; preds = %58, %2
  %20 = call noundef zeroext i1 @_ZN9__gnu_cxxneIPK14gmx_molblock_tSt6vectorIS1_SaIS1_EEEEbRKNS_17__normal_iteratorIT_T0_EESC_(ptr noundef nonnull align 8 dereferenceable(8) %5, ptr noundef nonnull align 8 dereferenceable(8) %6) #16
  br i1 %20, label %22, label %21

21:                                               ; preds = %19
  store i32 2, ptr %7, align 4
  call void @llvm.lifetime.end.p0(i64 8, ptr %6) #16
  call void @llvm.lifetime.end.p0(i64 8, ptr %5) #16
  call void @llvm.lifetime.end.p0(i64 8, ptr %4) #16
  br label %60

22:                                               ; preds = %19
  call void @llvm.lifetime.start.p0(i64 8, ptr %8) #16
  %23 = call noundef nonnull align 8 dereferenceable(56) ptr @_ZNK9__gnu_cxx17__normal_iteratorIPK14gmx_molblock_tSt6vectorIS1_SaIS1_EEEdeEv(ptr noundef nonnull align 8 dereferenceable(8) %5) #16
  store ptr %23, ptr %8, align 8, !tbaa !73
  call void @llvm.lifetime.start.p0(i64 8, ptr %9) #16
  %24 = load ptr, ptr %3, align 8, !tbaa !4
  %25 = getelementptr inbounds nuw %struct.gmx_mtop_t, ptr %24, i32 0, i32 2
  %26 = load ptr, ptr %8, align 8, !tbaa !73
  %27 = getelementptr inbounds nuw %struct.gmx_molblock_t, ptr %26, i32 0, i32 0
  %28 = load i32, ptr %27, align 8, !tbaa !74
  %29 = sext i32 %28 to i64
  %30 = call noundef nonnull align 8 dereferenceable(2408) ptr @_ZNKSt6vectorI13gmx_moltype_tSaIS0_EEixEm(ptr noundef nonnull align 8 dereferenceable(24) %25, i64 noundef %29) #16
  %31 = getelementptr inbounds nuw %struct.gmx_moltype_t, ptr %30, i32 0, i32 1
  store ptr %31, ptr %9, align 8, !tbaa !81
  call void @llvm.lifetime.start.p0(i64 4, ptr %10) #16
  store i32 0, ptr %10, align 4, !tbaa !9
  br label %32

32:                                               ; preds = %54, %22
  %33 = load i32, ptr %10, align 4, !tbaa !9
  %34 = load ptr, ptr %9, align 8, !tbaa !81
  %35 = getelementptr inbounds nuw %struct.t_atoms, ptr %34, i32 0, i32 0
  %36 = load i32, ptr %35, align 8, !tbaa !83
  %37 = icmp slt i32 %33, %36
  br i1 %37, label %39, label %38

38:                                               ; preds = %32
  store i32 4, ptr %7, align 4
  call void @llvm.lifetime.end.p0(i64 4, ptr %10) #16
  br label %57

39:                                               ; preds = %32
  %40 = load ptr, ptr %8, align 8, !tbaa !73
  %41 = getelementptr inbounds nuw %struct.gmx_molblock_t, ptr %40, i32 0, i32 1
  %42 = load i32, ptr %41, align 4, !tbaa !94
  %43 = load ptr, ptr %9, align 8, !tbaa !81
  %44 = getelementptr inbounds nuw %struct.t_atoms, ptr %43, i32 0, i32 1
  %45 = load ptr, ptr %44, align 8, !tbaa !88
  %46 = load i32, ptr %10, align 4, !tbaa !9
  %47 = sext i32 %46 to i64
  %48 = getelementptr inbounds %struct.t_atom, ptr %45, i64 %47
  %49 = getelementptr inbounds nuw %struct.t_atom, ptr %48, i32 0, i32 6
  %50 = load i32, ptr %49, align 4, !tbaa !131
  %51 = call noundef nonnull align 4 dereferenceable(4) ptr @_ZN3gmx16EnumerationArrayI12ParticleTypeiLS1_5EEixES1_(ptr noundef nonnull align 4 dereferenceable(20) %0, i32 noundef %50)
  %52 = load i32, ptr %51, align 4, !tbaa !9
  %53 = add nsw i32 %52, %42
  store i32 %53, ptr %51, align 4, !tbaa !9
  br label %54

54:                                               ; preds = %39
  %55 = load i32, ptr %10, align 4, !tbaa !9
  %56 = add nsw i32 %55, 1
  store i32 %56, ptr %10, align 4, !tbaa !9
  br label %32, !llvm.loop !132

57:                                               ; preds = %38
  call void @llvm.lifetime.end.p0(i64 8, ptr %9) #16
  call void @llvm.lifetime.end.p0(i64 8, ptr %8) #16
  br label %58

58:                                               ; preds = %57
  %59 = call noundef nonnull align 8 dereferenceable(8) ptr @_ZN9__gnu_cxx17__normal_iteratorIPK14gmx_molblock_tSt6vectorIS1_SaIS1_EEEppEv(ptr noundef nonnull align 8 dereferenceable(8) %5) #16
  br label %19

60:                                               ; preds = %21
  ret void
}