; Function Attrs: mustprogress nofree norecurse nosync nounwind memory(read, argmem: readwrite, inaccessiblemem: none) uwtable
define void @_Z27gmx_mtop_particletype_countRK10gmx_mtop_t(ptr dead_on_unwind noalias writable sret(%"struct.gmx::EnumerationArray.43") align 4 captures(none) initializes((0, 20)) %0, ptr noundef nonnull readonly align 8 captures(none) dereferenceable(768) %1) local_unnamed_addr #0 {
  tail call void @llvm.memset.p0.i64(ptr noundef nonnull align 4 dereferenceable(20) %0, i8 0, i64 20, i1 false)
  %3 = getelementptr inbounds nuw i8, ptr %1, i64 136
  %4 = load ptr, ptr %3, align 8, !tbaa !65
  %5 = getelementptr inbounds nuw i8, ptr %1, i64 144
  %6 = load ptr, ptr %5, align 8, !tbaa !65
  %.not14 = icmp eq ptr %4, %6
  br i1 %.not14, label %._crit_edge18, label %.lr.ph17

.lr.ph17:                                         ; preds = %2
  %7 = getelementptr inbounds nuw i8, ptr %1, i64 112
  %8 = load ptr, ptr %7, align 8, !tbaa !66
  br label %9

._crit_edge18:                                    ; preds = %._crit_edge, %2
  ret void

9:                                                ; preds = %.lr.ph17, %._crit_edge
  %.sroa.010.015 = phi ptr [ %4, %.lr.ph17 ], [ %20, %._crit_edge ]
  %10 = load i32, ptr %.sroa.010.015, align 8, !tbaa !67
  %11 = sext i32 %10 to i64
  %12 = getelementptr inbounds nuw %struct.gmx_moltype_t, ptr %8, i64 %11
  %13 = getelementptr inbounds nuw i8, ptr %12, i64 8
  %14 = load i32, ptr %13, align 8, !tbaa !74
  %15 = icmp sgt i32 %14, 0
  br i1 %15, label %.lr.ph, label %._crit_edge

.lr.ph:                                           ; preds = %9
  %16 = getelementptr inbounds nuw i8, ptr %.sroa.010.015, i64 4
  %17 = load i32, ptr %16, align 4, !tbaa !82
  %18 = getelementptr inbounds nuw i8, ptr %12, i64 16
  %19 = load ptr, ptr %18, align 8, !tbaa !79
  %wide.trip.count = zext nneg i32 %14 to i64
  br label %21

._crit_edge:                                      ; preds = %21, %9
  %20 = getelementptr inbounds nuw i8, ptr %.sroa.010.015, i64 56
  %.not = icmp eq ptr %20, %6
  br i1 %.not, label %._crit_edge18, label %9

21:                                               ; preds = %.lr.ph, %21
  %indvars.iv = phi i64 [ 0, %.lr.ph ], [ %indvars.iv.next, %21 ]
  %22 = getelementptr inbounds nuw %struct.t_atom, ptr %19, i64 %indvars.iv, i32 6
  %23 = load i32, ptr %22, align 4, !tbaa !98
  %24 = sext i32 %23 to i64
  %25 = getelementptr inbounds nuw [5 x i32], ptr %0, i64 0, i64 %24
  %26 = load i32, ptr %25, align 4, !tbaa !83
  %27 = add nsw i32 %26, %17
  store i32 %27, ptr %25, align 4, !tbaa !83
  %indvars.iv.next = add nuw nsw i64 %indvars.iv, 1
  %exitcond.not = icmp eq i64 %indvars.iv.next, %wide.trip.count
  br i1 %exitcond.not, label %._crit_edge, label %21, !llvm.loop !101
}